; Function Attrs: mustprogress uwtable
define noundef i32 @_ZN6google8protobuf4util18MessageDifferencer24GetFieldComparisonResultERKNS0_7MessageES5_PKNS0_15FieldDescriptorEiiPKNS1_12FieldContextE(ptr nocapture noundef nonnull readonly align 8 dereferenceable(432) %this, ptr noundef nonnull align 8 dereferenceable(16) %message1, ptr noundef nonnull align 8 dereferenceable(16) %message2, ptr noundef %field, i32 noundef %index1, i32 noundef %index2, ptr noundef %field_context) local_unnamed_addr #3 align 2 {
entry:
  %cond.in = getelementptr inbounds i8, ptr %this, i64 368
  %cond = load ptr, ptr %cond.in, align 8
  %vtable = load ptr, ptr %cond, align 8
  %vfn = getelementptr inbounds i8, ptr %vtable, i64 16
  %0 = load ptr, ptr %vfn, align 8
  %call = tail call noundef i32 %0(ptr noundef nonnull align 8 dereferenceable(8) %cond, ptr noundef nonnull align 8 dereferenceable(16) %message1, ptr noundef nonnull align 8 dereferenceable(16) %message2, ptr noundef %field, i32 noundef %index1, i32 noundef %index2, ptr noundef %field_context)
  ret i32 %call
}